target datalayout = "e-m:e-p270:32:32-p271:32:32-p272:64:64-i64:64-i128:128-f80:128-n8:16:32:64-S128"
target triple = "x86_64-pc-linux-gnu"

%struct.Publication = type { i32, ptr, i8, i8, i32, %struct.PublicationActions }
%struct.PublicationActions = type { i8, i8, i8, i8 }
%struct.ArrayType = type { i32, i32, i32, i32 }

@CurrentMemoryContext = external global ptr, align 8

; Function Attrs: inlinehint nounwind uwtable
define internal ptr @MemoryContextSwitchTo(ptr noundef %0) #2 {
  %2 = alloca ptr, align 8
  %3 = alloca ptr, align 8
  store ptr %0, ptr %2, align 8
  call void @llvm.lifetime.start.p0(i64 8, ptr %3) #7
  %4 = load ptr, ptr @CurrentMemoryContext, align 8
  store ptr %4, ptr %3, align 8
  %5 = load ptr, ptr %2, align 8
  store ptr %5, ptr @CurrentMemoryContext, align 8
  %6 = load ptr, ptr %3, align 8
  call void @llvm.lifetime.end.p0(i64 8, ptr %3) #7
  ret ptr %6
}

; Function Attrs: inlinehint nounwind uwtable
define internal ptr @DatumGetPointer(i64 noundef %0) #2 {
  %2 = alloca i64, align 8
  store i64 %0, ptr %2, align 8
  %3 = load i64, ptr %2, align 8
  %4 = inttoptr i64 %3 to ptr
  ret ptr %4
}

; Function Attrs: nounwind uwtable
define dso_local ptr @pub_collist_to_bitmapset(ptr noundef %0, i64 noundef %1, ptr noundef %2) #0 {
  %4 = alloca ptr, align 8
  %5 = alloca i64, align 8
  %6 = alloca ptr, align 8
  %7 = alloca ptr, align 8
  %8 = alloca ptr, align 8
  %9 = alloca i32, align 4
  %10 = alloca ptr, align 8
  %11 = alloca ptr, align 8
  %12 = alloca i32, align 4
  store ptr %0, ptr %4, align 8
  store i64 %1, ptr %5, align 8
  store ptr %2, ptr %6, align 8
  call void @llvm.lifetime.start.p0(i64 8, ptr %7) #7
  %13 = load ptr, ptr %4, align 8
  store ptr %13, ptr %7, align 8
  call void @llvm.lifetime.start.p0(i64 8, ptr %8) #7
  call void @llvm.lifetime.start.p0(i64 4, ptr %9) #7
  call void @llvm.lifetime.start.p0(i64 8, ptr %10) #7
  call void @llvm.lifetime.start.p0(i64 8, ptr %11) #7
  store ptr null, ptr %11, align 8
  %14 = load i64, ptr %5, align 8
  %15 = call ptr @DatumGetPointer(i64 noundef %14)
  %16 = call ptr @pg_detoast_datum(ptr noundef %15)
  store ptr %16, ptr %8, align 8
  %17 = load ptr, ptr %8, align 8
  %18 = getelementptr inbounds nuw i8, ptr %17, i64 16
  %19 = getelementptr inbounds i32, ptr %18, i64 0
  %20 = load i32, ptr %19, align 4
  store i32 %20, ptr %9, align 4
  %21 = load ptr, ptr %8, align 8
  %22 = load ptr, ptr %8, align 8
  %23 = getelementptr inbounds nuw %struct.ArrayType, ptr %22, i32 0, i32 2
  %24 = load i32, ptr %23, align 4
  %25 = icmp ne i32 %24, 0
  br i1 %25, label %26, label %31

26:                                               ; preds = %3
  %27 = load ptr, ptr %8, align 8
  %28 = getelementptr inbounds nuw %struct.ArrayType, ptr %27, i32 0, i32 2
  %29 = load i32, ptr %28, align 4
  %30 = sext i32 %29 to i64
  br label %40

31:                                               ; preds = %3
  %32 = load ptr, ptr %8, align 8
  %33 = getelementptr inbounds nuw %struct.ArrayType, ptr %32, i32 0, i32 1
  %34 = load i32, ptr %33, align 4
  %35 = sext i32 %34 to i64
  %36 = mul i64 8, %35
  %37 = add i64 16, %36
  %38 = add i64 %37, 7
  %39 = and i64 %38, -8
  br label %40

40:                                               ; preds = %31, %26
  %41 = phi i64 [ %30, %26 ], [ %39, %31 ]
  %42 = getelementptr inbounds nuw i8, ptr %21, i64 %41
  store ptr %42, ptr %10, align 8
  %43 = load ptr, ptr %6, align 8
  %44 = icmp ne ptr %43, null
  br i1 %44, label %45, label %48

45:                                               ; preds = %40
  %46 = load ptr, ptr %6, align 8
  %47 = call ptr @MemoryContextSwitchTo(ptr noundef %46)
  store ptr %47, ptr %11, align 8
  br label %48

48:                                               ; preds = %45, %40
  call void @llvm.lifetime.start.p0(i64 4, ptr %12) #7
  store i32 0, ptr %12, align 4
  br label %49

49:                                               ; preds = %63, %48
  %50 = load i32, ptr %12, align 4
  %51 = load i32, ptr %9, align 4
  %52 = icmp slt i32 %50, %51
  br i1 %52, label %54, label %53

53:                                               ; preds = %49
  call void @llvm.lifetime.end.p0(i64 4, ptr %12) #7
  br label %66

54:                                               ; preds = %49
  %55 = load ptr, ptr %7, align 8
  %56 = load ptr, ptr %10, align 8
  %57 = load i32, ptr %12, align 4
  %58 = sext i32 %57 to i64
  %59 = getelementptr inbounds i16, ptr %56, i64 %58
  %60 = load i16, ptr %59, align 2
  %61 = sext i16 %60 to i32
  %62 = call ptr @bms_add_member(ptr noundef %55, i32 noundef %61)
  store ptr %62, ptr %7, align 8
  br label %63

63:                                               ; preds = %54
  %64 = load i32, ptr %12, align 4
  %65 = add i32 %64, 1
  store i32 %65, ptr %12, align 4
  br label %49, !llvm.loop !6

66:                                               ; preds = %53
  %67 = load ptr, ptr %6, align 8
  %68 = icmp ne ptr %67, null
  br i1 %68, label %69, label %72

69:                                               ; preds = %66
  %70 = load ptr, ptr %11, align 8
  %71 = call ptr @MemoryContextSwitchTo(ptr noundef %70)
  br label %72

72:                                               ; preds = %69, %66
  %73 = load ptr, ptr %7, align 8
  call void @llvm.lifetime.end.p0(i64 8, ptr %11) #7
  call void @llvm.lifetime.end.p0(i64 8, ptr %10) #7
  call void @llvm.lifetime.end.p0(i64 4, ptr %9) #7
  call void @llvm.lifetime.end.p0(i64 8, ptr %8) #7
  call void @llvm.lifetime.end.p0(i64 8, ptr %7) #7
  ret ptr %73
}

; Function Attrs: inlinehint nounwind uwtable
define internal i64 @ObjectIdGetDatum(i32 noundef %0) #2 {
  %2 = alloca i32, align 4
  store i32 %0, ptr %2, align 4
  %3 = load i32, ptr %2, align 4
  %4 = zext i32 %3 to i64
  ret i64 %4
}

; Function Attrs: nounwind uwtable
define dso_local zeroext i1 @check_and_fetch_column_list(ptr noundef %0, i32 noundef %1, ptr noundef %2, ptr noundef %3) #0 {
  %5 = alloca i1, align 1
  %6 = alloca ptr, align 8
  %7 = alloca i32, align 4
  %8 = alloca ptr, align 8
  %9 = alloca ptr, align 8
  %10 = alloca ptr, align 8
  %11 = alloca i8, align 1
  %12 = alloca i32, align 4
  %13 = alloca i64, align 8
  %14 = alloca i8, align 1
  store ptr %0, ptr %6, align 8
  store i32 %1, ptr %7, align 4
  store ptr %2, ptr %8, align 8
  store ptr %3, ptr %9, align 8
  call void @llvm.lifetime.start.p0(i64 8, ptr %10) #7
  call void @llvm.lifetime.start.p0(i64 1, ptr %11) #7
  store i8 0, ptr %11, align 1
  %15 = load ptr, ptr %6, align 8
  %16 = getelementptr inbounds nuw %struct.Publication, ptr %15, i32 0, i32 2
  %17 = load i8, ptr %16, align 8, !range !4, !noundef !5
  %18 = trunc i8 %17 to i1
  br i1 %18, label %19, label %20

19:                                               ; preds = %4
  store i1 false, ptr %5, align 1
  store i32 1, ptr %12, align 4
  br label %51

20:                                               ; preds = %4
  %21 = load i32, ptr %7, align 4
  %22 = call i64 @ObjectIdGetDatum(i32 noundef %21)
  %23 = load ptr, ptr %6, align 8
  %24 = getelementptr inbounds nuw %struct.Publication, ptr %23, i32 0, i32 0
  %25 = load i32, ptr %24, align 8
  %26 = call i64 @ObjectIdGetDatum(i32 noundef %25)
  %27 = call ptr @SearchSysCache2(i32 noundef 53, i64 noundef %22, i64 noundef %26)
  store ptr %27, ptr %10, align 8
  %28 = load ptr, ptr %10, align 8
  %29 = icmp ne ptr %28, null
  br i1 %29, label %30, label %48

30:                                               ; preds = %20
  call void @llvm.lifetime.start.p0(i64 8, ptr %13) #7
  call void @llvm.lifetime.start.p0(i64 1, ptr %14) #7
  %31 = load ptr, ptr %10, align 8
  %32 = call i64 @SysCacheGetAttr(i32 noundef 53, ptr noundef %31, i16 noundef signext 5, ptr noundef %14)
  store i64 %32, ptr %13, align 8
  %33 = load i8, ptr %14, align 1, !range !4, !noundef !5
  %34 = trunc i8 %33 to i1
  br i1 %34, label %46, label %35

35:                                               ; preds = %30
  %36 = load ptr, ptr %9, align 8
  %37 = icmp ne ptr %36, null
  br i1 %37, label %38, label %45

38:                                               ; preds = %35
  %39 = load ptr, ptr %9, align 8
  %40 = load ptr, ptr %39, align 8
  %41 = load i64, ptr %13, align 8
  %42 = load ptr, ptr %8, align 8
  %43 = call ptr @pub_collist_to_bitmapset(ptr noundef %40, i64 noundef %41, ptr noundef %42)
  %44 = load ptr, ptr %9, align 8
  store ptr %43, ptr %44, align 8
  br label %45

45:                                               ; preds = %38, %35
  store i8 1, ptr %11, align 1
  br label %46

46:                                               ; preds = %45, %30
  %47 = load ptr, ptr %10, align 8
  call void @ReleaseSysCache(ptr noundef %47)
  call void @llvm.lifetime.end.p0(i64 1, ptr %14) #7
  call void @llvm.lifetime.end.p0(i64 8, ptr %13) #7
  br label %48

48:                                               ; preds = %46, %20
  %49 = load i8, ptr %11, align 1, !range !4, !noundef !5
  %50 = trunc i8 %49 to i1
  store i1 %50, ptr %5, align 1
  store i32 1, ptr %12, align 4
  br label %51

51:                                               ; preds = %48, %19
  call void @llvm.lifetime.end.p0(i64 1, ptr %11) #7
  call void @llvm.lifetime.end.p0(i64 8, ptr %10) #7
  %52 = load i1, ptr %5, align 1
  ret i1 %52
}