; Function Attrs: nounwind uwtable
define dso_local zeroext i1 @check_and_fetch_column_list(ptr noundef readonly captures(none) %0, i32 noundef %1, ptr noundef %2, ptr noundef captures(address_is_null) %3) local_unnamed_addr #0 {
  %5 = alloca i8, align 1
  %6 = getelementptr inbounds nuw i8, ptr %0, i64 16
  %7 = load i8, ptr %6, align 8, !range !4, !noundef !5
  %8 = trunc nuw i8 %7 to i1
  br i1 %8, label %48, label %9

9:                                                ; preds = %4
  %10 = zext i32 %1 to i64
  %11 = load i32, ptr %0, align 8
  %12 = zext i32 %11 to i64
  %13 = tail call ptr @SearchSysCache2(i32 noundef 53, i64 noundef %10, i64 noundef %12) #6
  %.not = icmp eq ptr %13, null
  br i1 %.not, label %48, label %14

14:                                               ; preds = %9
  call void @llvm.lifetime.start.p0(i64 1, ptr nonnull %5) #6
  %15 = call i64 @SysCacheGetAttr(i32 noundef 53, ptr noundef nonnull %13, i16 noundef signext 5, ptr noundef nonnull %5) #6
  %16 = load i8, ptr %5, align 1, !range !4, !noundef !5
  %17 = trunc nuw i8 %16 to i1
  %.not15 = icmp eq ptr %3, null
  %or.cond = or i1 %.not15, %17
  br i1 %or.cond, label %47, label %18

18:                                               ; preds = %14
  %19 = load ptr, ptr %3, align 8
  %20 = inttoptr i64 %15 to ptr
  %21 = call ptr @pg_detoast_datum(ptr noundef %20) #6
  %22 = getelementptr inbounds nuw i8, ptr %21, i64 16
  %23 = load i32, ptr %22, align 4
  %24 = getelementptr inbounds nuw i8, ptr %21, i64 8
  %25 = load i32, ptr %24, align 4
  %.not.i = icmp eq i32 %25, 0
  br i1 %.not.i, label %28, label %26

26:                                               ; preds = %18
  %27 = sext i32 %25 to i64
  br label %35

28:                                               ; preds = %18
  %29 = getelementptr inbounds nuw i8, ptr %21, i64 4
  %30 = load i32, ptr %29, align 4
  %31 = sext i32 %30 to i64
  %32 = shl nsw i64 %31, 3
  %33 = add nsw i64 %32, 23
  %34 = and i64 %33, -8
  br label %35

35:                                               ; preds = %28, %26
  %36 = phi i64 [ %27, %26 ], [ %34, %28 ]
  %37 = getelementptr inbounds nuw i8, ptr %21, i64 %36
  %.not21.i = icmp eq ptr %2, null
  br i1 %.not21.i, label %40, label %38

38:                                               ; preds = %35
  %39 = load ptr, ptr @CurrentMemoryContext, align 8
  store ptr %2, ptr @CurrentMemoryContext, align 8
  br label %40

40:                                               ; preds = %38, %35
  %.017.i = phi ptr [ %39, %38 ], [ null, %35 ]
  %41 = icmp sgt i32 %23, 0
  br i1 %41, label %.lr.ph.preheader.i, label %._crit_edge.i

.lr.ph.preheader.i:                               ; preds = %40
  %wide.trip.count.i = zext nneg i32 %23 to i64
  br label %.lr.ph.i

._crit_edge.i:                                    ; preds = %.lr.ph.i, %40
  %.018.lcssa.i = phi ptr [ %19, %40 ], [ %45, %.lr.ph.i ]
  br i1 %.not21.i, label %pub_collist_to_bitmapset.exit, label %46

.lr.ph.i:                                         ; preds = %.lr.ph.i, %.lr.ph.preheader.i
  %indvars.iv.i = phi i64 [ 0, %.lr.ph.preheader.i ], [ %indvars.iv.next.i, %.lr.ph.i ]
  %.01822.i = phi ptr [ %19, %.lr.ph.preheader.i ], [ %45, %.lr.ph.i ]
  %42 = getelementptr inbounds nuw i16, ptr %37, i64 %indvars.iv.i
  %43 = load i16, ptr %42, align 2
  %44 = sext i16 %43 to i32
  %45 = call ptr @bms_add_member(ptr noundef %.01822.i, i32 noundef %44) #6
  %indvars.iv.next.i = add nuw nsw i64 %indvars.iv.i, 1
  %exitcond.not.i = icmp eq i64 %indvars.iv.next.i, %wide.trip.count.i
  br i1 %exitcond.not.i, label %._crit_edge.i, label %.lr.ph.i, !llvm.loop !6

46:                                               ; preds = %._crit_edge.i
  store ptr %.017.i, ptr @CurrentMemoryContext, align 8
  br label %pub_collist_to_bitmapset.exit

pub_collist_to_bitmapset.exit:                    ; preds = %._crit_edge.i, %46
  store ptr %.018.lcssa.i, ptr %3, align 8
  br label %47

47:                                               ; preds = %pub_collist_to_bitmapset.exit, %14
  %.1 = xor i1 %17, true
  call void @ReleaseSysCache(ptr noundef nonnull %13) #6
  call void @llvm.lifetime.end.p0(i64 1, ptr nonnull %5) #6
  br label %48

48:                                               ; preds = %9, %47, %4
  %.0 = phi i1 [ false, %4 ], [ %.1, %47 ], [ false, %9 ]
  ret i1 %.0
}